target datalayout = "e-m:e-p270:32:32-p271:32:32-p272:64:64-i64:64-i128:128-f80:128-n8:16:32:64-S128"
target triple = "x86_64-pc-linux-gnu"

%struct.ScanKeyData = type { i32, i16, i16, i32, i32, %struct.FmgrInfo, i64 }
%struct.FmgrInfo = type { ptr, i32, i16, i8, i8, i8, ptr, ptr, ptr }
%struct.RelationData = type { %struct.RelFileLocator, ptr, i32, i32, i8, i8, i8, i8, i8, i32, i32, i32, i32, ptr, ptr, i32, %struct.LockInfoData, ptr, ptr, ptr, ptr, ptr, i8, ptr, ptr, ptr, ptr, ptr, ptr, i32, ptr, i8, ptr, ptr, i32, i8, i32, ptr, i8, ptr, ptr, ptr, ptr, ptr, ptr, ptr, i32, ptr, ptr, ptr, ptr, ptr, ptr, ptr, ptr, ptr, ptr, ptr, ptr, ptr, ptr, ptr, ptr, ptr, ptr, ptr, i32, i8, ptr }
%struct.RelFileLocator = type { i32, i32, i32 }
%struct.LockInfoData = type { %struct.LockRelId }
%struct.LockRelId = type { i32, i32 }
%struct.FormData_pg_class = type { i32, %struct.nameData, i32, i32, i32, i32, i32, i32, i32, i32, float, i32, i32, i8, i8, i8, i8, i16, i16, i8, i8, i8, i8, i8, i8, i8, i8, i32, i32, i32 }
%struct.nameData = type { [64 x i8] }
%struct.FormData_pg_trigger = type { i32, i32, i32, %struct.nameData, i32, i16, i8, i8, i32, i32, i32, i8, i8, i16, %struct.int2vector }
%struct.int2vector = type { i32, i32, i32, i32, i32, i32, [0 x i16] }
%struct.HeapTupleData = type { i32, %struct.ItemPointerData, i32, ptr }
%struct.ItemPointerData = type { %struct.BlockIdData, i16 }
%struct.BlockIdData = type { i16, i16 }
%struct.HeapTupleHeaderData = type { %union.anon, %struct.ItemPointerData, i16, i16, i8, [0 x i8] }
%union.anon = type { %struct.HeapTupleFields }
%struct.HeapTupleFields = type { i32, i32, %union.anon.1 }
%union.anon.1 = type { i32 }

@.str.2 = private unnamed_addr constant [10 x i8] c"trigger.c\00", align 1
@.str.45 = private unnamed_addr constant [46 x i8] c"trigger \22%s\22 for relation \22%s\22 already exists\00", align 1
@object_access_hook = external global ptr, align 8
@__func__.renametrig_internal = private unnamed_addr constant [20 x i8] c"renametrig_internal\00", align 1
@.str.70 = private unnamed_addr constant [38 x i8] c"renamed trigger \22%s\22 on relation \22%s\22\00", align 1

; Function Attrs: inlinehint nounwind uwtable
define internal i64 @PointerGetDatum(ptr noundef %0) #7 {
  %2 = alloca ptr, align 8
  store ptr %0, ptr %2, align 8
  %3 = load ptr, ptr %2, align 8
  %4 = ptrtoint ptr %3 to i64
  ret i64 %4
}

; Function Attrs: inlinehint nounwind uwtable
define internal i64 @ObjectIdGetDatum(i32 noundef %0) #7 {
  %2 = alloca i32, align 4
  store i32 %0, ptr %2, align 4
  %3 = load i32, ptr %2, align 4
  %4 = zext i32 %3 to i64
  ret i64 %4
}

; Function Attrs: inlinehint nounwind uwtable
define internal ptr @GETSTRUCT(ptr noundef %0) #7 {
  %2 = alloca ptr, align 8
  store ptr %0, ptr %2, align 8
  %3 = load ptr, ptr %2, align 8
  %4 = getelementptr inbounds nuw %struct.HeapTupleData, ptr %3, i32 0, i32 3
  %5 = load ptr, ptr %4, align 8
  %6 = load ptr, ptr %2, align 8
  %7 = getelementptr inbounds nuw %struct.HeapTupleData, ptr %6, i32 0, i32 3
  %8 = load ptr, ptr %7, align 8
  %9 = getelementptr inbounds nuw %struct.HeapTupleHeaderData, ptr %8, i32 0, i32 4
  %10 = load i8, ptr %9, align 2
  %11 = zext i8 %10 to i32
  %12 = sext i32 %11 to i64
  %13 = getelementptr inbounds i8, ptr %5, i64 %12
  ret ptr %13
}

; Function Attrs: nounwind uwtable
define internal void @renametrig_internal(ptr noundef %0, ptr noundef %1, ptr noundef %2, ptr noundef %3, ptr noundef %4) #0 {
  %6 = alloca ptr, align 8
  %7 = alloca ptr, align 8
  %8 = alloca ptr, align 8
  %9 = alloca ptr, align 8
  %10 = alloca ptr, align 8
  %11 = alloca ptr, align 8
  %12 = alloca ptr, align 8
  %13 = alloca [2 x %struct.ScanKeyData], align 16
  %14 = alloca ptr, align 8
  %15 = alloca i32, align 4
  store ptr %0, ptr %6, align 8
  store ptr %1, ptr %7, align 8
  store ptr %2, ptr %8, align 8
  store ptr %3, ptr %9, align 8
  store ptr %4, ptr %10, align 8
  call void @llvm.lifetime.start.p0(i64 8, ptr %11) #12
  call void @llvm.lifetime.start.p0(i64 8, ptr %12) #12
  call void @llvm.lifetime.start.p0(i64 144, ptr %13) #12
  call void @llvm.lifetime.start.p0(i64 8, ptr %14) #12
  %16 = load ptr, ptr %8, align 8
  %17 = call ptr @GETSTRUCT(ptr noundef %16)
  store ptr %17, ptr %12, align 8
  %18 = load ptr, ptr %12, align 8
  %19 = getelementptr inbounds nuw %struct.FormData_pg_trigger, ptr %18, i32 0, i32 3
  %20 = getelementptr inbounds nuw %struct.nameData, ptr %19, i32 0, i32 0
  %21 = getelementptr inbounds [64 x i8], ptr %20, i64 0, i64 0
  %22 = load ptr, ptr %9, align 8
  %23 = call i32 @strcmp(ptr noundef %21, ptr noundef %22) #14
  %24 = icmp eq i32 %23, 0
  br i1 %24, label %25, label %26

25:                                               ; preds = %5
  store i32 1, ptr %15, align 4
  br label %113

26:                                               ; preds = %5
  %27 = getelementptr inbounds [2 x %struct.ScanKeyData], ptr %13, i64 0, i64 0
  %28 = load ptr, ptr %7, align 8
  %29 = getelementptr inbounds nuw %struct.RelationData, ptr %28, i32 0, i32 15
  %30 = load i32, ptr %29, align 8
  %31 = call i64 @ObjectIdGetDatum(i32 noundef %30)
  call void @ScanKeyInit(ptr noundef %27, i16 noundef signext 2, i16 noundef zeroext 3, i32 noundef 184, i64 noundef %31)
  %32 = getelementptr inbounds [2 x %struct.ScanKeyData], ptr %13, i64 0, i64 1
  %33 = load ptr, ptr %9, align 8
  %34 = call i64 @PointerGetDatum(ptr noundef %33)
  call void @ScanKeyInit(ptr noundef %32, i16 noundef signext 4, i16 noundef zeroext 3, i32 noundef 62, i64 noundef %34)
  %35 = load ptr, ptr %6, align 8
  %36 = getelementptr inbounds [2 x %struct.ScanKeyData], ptr %13, i64 0, i64 0
  %37 = call ptr @systable_beginscan(ptr noundef %35, i32 noundef 2701, i1 noundef zeroext true, ptr noundef null, i32 noundef 2, ptr noundef %36)
  store ptr %37, ptr %14, align 8
  %38 = load ptr, ptr %14, align 8
  %39 = call ptr @systable_getnext(ptr noundef %38)
  store ptr %39, ptr %11, align 8
  %40 = icmp ne ptr %39, null
  br i1 %40, label %41, label %60

41:                                               ; preds = %26
  br label %42

42:                                               ; preds = %41
  br i1 true, label %43, label %45

43:                                               ; preds = %42
  %44 = call zeroext i1 @errstart_cold(i32 noundef 21, ptr noundef null) #13
  br i1 %44, label %47, label %57

45:                                               ; preds = %42
  %46 = call zeroext i1 @errstart(i32 noundef 21, ptr noundef null)
  br i1 %46, label %47, label %57

47:                                               ; preds = %45, %43
  %48 = call i32 @errcode(i32 noundef 290948)
  %49 = load ptr, ptr %9, align 8
  %50 = load ptr, ptr %7, align 8
  %51 = getelementptr inbounds nuw %struct.RelationData, ptr %50, i32 0, i32 13
  %52 = load ptr, ptr %51, align 8
  %53 = getelementptr inbounds nuw %struct.FormData_pg_class, ptr %52, i32 0, i32 1
  %54 = getelementptr inbounds nuw %struct.nameData, ptr %53, i32 0, i32 0
  %55 = getelementptr inbounds [64 x i8], ptr %54, i64 0, i64 0
  %56 = call i32 (ptr, ...) @errmsg(ptr noundef @.str.45, ptr noundef %49, ptr noundef %55)
  call void @errfinish(ptr noundef @.str.2, i32 noundef 1614, ptr noundef @__func__.renametrig_internal)
  br label %57

57:                                               ; preds = %47, %45, %43
  unreachable

58:                                               ; No predecessors!
  br label %59

59:                                               ; preds = %58
  br label %60

60:                                               ; preds = %59, %26
  %61 = load ptr, ptr %14, align 8
  call void @systable_endscan(ptr noundef %61)
  %62 = load ptr, ptr %8, align 8
  %63 = call ptr @heap_copytuple(ptr noundef %62)
  store ptr %63, ptr %11, align 8
  %64 = load ptr, ptr %11, align 8
  %65 = call ptr @GETSTRUCT(ptr noundef %64)
  store ptr %65, ptr %12, align 8
  %66 = load ptr, ptr %12, align 8
  %67 = getelementptr inbounds nuw %struct.FormData_pg_trigger, ptr %66, i32 0, i32 3
  %68 = getelementptr inbounds nuw %struct.nameData, ptr %67, i32 0, i32 0
  %69 = getelementptr inbounds [64 x i8], ptr %68, i64 0, i64 0
  %70 = load ptr, ptr %10, align 8
  %71 = call i32 @strcmp(ptr noundef %69, ptr noundef %70) #14
  %72 = icmp ne i32 %71, 0
  br i1 %72, label %73, label %94

73:                                               ; preds = %60
  br label %74

74:                                               ; preds = %73
  br i1 false, label %75, label %77

75:                                               ; preds = %74
  %76 = call zeroext i1 @errstart_cold(i32 noundef 18, ptr noundef null) #13
  br i1 %76, label %79, label %91

77:                                               ; preds = %74
  %78 = call zeroext i1 @errstart(i32 noundef 18, ptr noundef null)
  br i1 %78, label %79, label %91

79:                                               ; preds = %77, %75
  %80 = load ptr, ptr %12, align 8
  %81 = getelementptr inbounds nuw %struct.FormData_pg_trigger, ptr %80, i32 0, i32 3
  %82 = getelementptr inbounds nuw %struct.nameData, ptr %81, i32 0, i32 0
  %83 = getelementptr inbounds [64 x i8], ptr %82, i64 0, i64 0
  %84 = load ptr, ptr %7, align 8
  %85 = getelementptr inbounds nuw %struct.RelationData, ptr %84, i32 0, i32 13
  %86 = load ptr, ptr %85, align 8
  %87 = getelementptr inbounds nuw %struct.FormData_pg_class, ptr %86, i32 0, i32 1
  %88 = getelementptr inbounds nuw %struct.nameData, ptr %87, i32 0, i32 0
  %89 = getelementptr inbounds [64 x i8], ptr %88, i64 0, i64 0
  %90 = call i32 (ptr, ...) @errmsg(ptr noundef @.str.70, ptr noundef %83, ptr noundef %89)
  call void @errfinish(ptr noundef @.str.2, i32 noundef 1632, ptr noundef @__func__.renametrig_internal)
  br label %91

91:                                               ; preds = %79, %77, %75
  br label %92

92:                                               ; preds = %91
  br label %93

93:                                               ; preds = %92
  br label %94

94:                                               ; preds = %93, %60
  %95 = load ptr, ptr %12, align 8
  %96 = getelementptr inbounds nuw %struct.FormData_pg_trigger, ptr %95, i32 0, i32 3
  %97 = load ptr, ptr %9, align 8
  call void @namestrcpy(ptr noundef %96, ptr noundef %97)
  %98 = load ptr, ptr %6, align 8
  %99 = load ptr, ptr %11, align 8
  %100 = getelementptr inbounds nuw %struct.HeapTupleData, ptr %99, i32 0, i32 1
  %101 = load ptr, ptr %11, align 8
  call void @CatalogTupleUpdate(ptr noundef %98, ptr noundef %100, ptr noundef %101)
  br label %102

102:                                              ; preds = %94
  %103 = load ptr, ptr @object_access_hook, align 8
  %104 = icmp ne ptr %103, null
  br i1 %104, label %105, label %109

105:                                              ; preds = %102
  %106 = load ptr, ptr %12, align 8
  %107 = getelementptr inbounds nuw %struct.FormData_pg_trigger, ptr %106, i32 0, i32 0
  %108 = load i32, ptr %107, align 4
  call void @RunObjectPostAlterHook(i32 noundef 2620, i32 noundef %108, i32 noundef 0, i32 noundef 0, i1 noundef zeroext false)
  br label %109

109:                                              ; preds = %105, %102
  br label %110

110:                                              ; preds = %109
  br label %111

111:                                              ; preds = %110
  %112 = load ptr, ptr %7, align 8
  call void @CacheInvalidateRelcache(ptr noundef %112)
  store i32 0, ptr %15, align 4
  br label %113

113:                                              ; preds = %111, %25
  call void @llvm.lifetime.end.p0(i64 8, ptr %14) #12
  call void @llvm.lifetime.end.p0(i64 144, ptr %13) #12
  call void @llvm.lifetime.end.p0(i64 8, ptr %12) #12
  call void @llvm.lifetime.end.p0(i64 8, ptr %11) #12
  %114 = load i32, ptr %15, align 4
  switch i32 %114, label %116 [
    i32 0, label %115
    i32 1, label %115
  ]

115:                                              ; preds = %113, %113
  ret void

116:                                              ; preds = %113
  unreachable
}