; Function Attrs: nounwind uwtable
define internal fastcc void @renametrig_internal(ptr noundef %0, ptr noundef %1, ptr noundef nonnull %2, ptr noundef %3, ptr noundef readonly captures(none) %4) unnamed_addr #0 {
  %6 = alloca [2 x %struct.ScanKeyData], align 16
  call void @llvm.lifetime.start.p0(i64 144, ptr nonnull %6) #16
  %7 = getelementptr i8, ptr %2, i64 16
  %.val25 = load ptr, ptr %7, align 8
  %8 = getelementptr inbounds nuw i8, ptr %.val25, i64 22
  %9 = load i8, ptr %8, align 2
  %10 = zext i8 %9 to i64
  %11 = getelementptr inbounds nuw i8, ptr %.val25, i64 %10
  %12 = getelementptr inbounds nuw i8, ptr %11, i64 12
  %13 = tail call i32 @strcmp(ptr noundef nonnull dereferenceable(1) %12, ptr noundef nonnull dereferenceable(1) %3) #18
  %14 = icmp eq i32 %13, 0
  br i1 %14, label %52, label %15

15:                                               ; preds = %5
  %16 = getelementptr inbounds nuw i8, ptr %1, i64 72
  %17 = load i32, ptr %16, align 8
  %18 = zext i32 %17 to i64
  call void @ScanKeyInit(ptr noundef nonnull %6, i16 noundef signext 2, i16 noundef zeroext 3, i32 noundef 184, i64 noundef %18) #16
  %19 = getelementptr inbounds nuw i8, ptr %6, i64 72
  %20 = ptrtoint ptr %3 to i64
  call void @ScanKeyInit(ptr noundef nonnull %19, i16 noundef signext 4, i16 noundef zeroext 3, i32 noundef 62, i64 noundef %20) #16
  %21 = call ptr @systable_beginscan(ptr noundef %0, i32 noundef 2701, i1 noundef zeroext true, ptr noundef null, i32 noundef 2, ptr noundef nonnull %6) #16
  %22 = call ptr @systable_getnext(ptr noundef %21) #16
  %.not = icmp eq ptr %22, null
  br i1 %.not, label %30, label %23

23:                                               ; preds = %15
  %24 = call zeroext i1 @errstart_cold(i32 noundef 21, ptr noundef null) #17
  call void @llvm.assume(i1 %24)
  %25 = call i32 @errcode(i32 noundef 290948) #16
  %26 = getelementptr inbounds nuw i8, ptr %1, i64 56
  %27 = load ptr, ptr %26, align 8
  %28 = getelementptr inbounds nuw i8, ptr %27, i64 4
  %29 = call i32 (ptr, ...) @errmsg(ptr noundef nonnull @.str.45, ptr noundef nonnull %3, ptr noundef nonnull %28) #16
  call void @errfinish(ptr noundef nonnull @.str.2, i32 noundef 1614, ptr noundef nonnull @__func__.renametrig_internal) #16
  unreachable

30:                                               ; preds = %15
  call void @systable_endscan(ptr noundef %21) #16
  %31 = call ptr @heap_copytuple(ptr noundef nonnull %2) #16
  %32 = getelementptr i8, ptr %31, i64 16
  %.val = load ptr, ptr %32, align 8
  %33 = getelementptr inbounds nuw i8, ptr %.val, i64 22
  %34 = load i8, ptr %33, align 2
  %35 = zext i8 %34 to i64
  %36 = getelementptr inbounds nuw i8, ptr %.val, i64 %35
  %37 = getelementptr inbounds nuw i8, ptr %36, i64 12
  %38 = call i32 @strcmp(ptr noundef nonnull dereferenceable(1) %37, ptr noundef nonnull dereferenceable(1) %4) #18
  %.not23 = icmp eq i32 %38, 0
  br i1 %.not23, label %46, label %39

39:                                               ; preds = %30
  %40 = call zeroext i1 @errstart(i32 noundef 18, ptr noundef null) #16
  br i1 %40, label %41, label %46

41:                                               ; preds = %39
  %42 = getelementptr inbounds nuw i8, ptr %1, i64 56
  %43 = load ptr, ptr %42, align 8
  %44 = getelementptr inbounds nuw i8, ptr %43, i64 4
  %45 = call i32 (ptr, ...) @errmsg(ptr noundef nonnull @.str.70, ptr noundef nonnull %37, ptr noundef nonnull %44) #16
  call void @errfinish(ptr noundef nonnull @.str.2, i32 noundef 1632, ptr noundef nonnull @__func__.renametrig_internal) #16
  br label %46

46:                                               ; preds = %39, %41, %30
  call void @namestrcpy(ptr noundef nonnull %37, ptr noundef nonnull %3) #16
  %47 = getelementptr inbounds nuw i8, ptr %31, i64 4
  call void @CatalogTupleUpdate(ptr noundef %0, ptr noundef nonnull %47, ptr noundef nonnull %31) #16
  %48 = load ptr, ptr @object_access_hook, align 8
  %.not24 = icmp eq ptr %48, null
  br i1 %.not24, label %51, label %49

49:                                               ; preds = %46
  %50 = load i32, ptr %36, align 4
  call void @RunObjectPostAlterHook(i32 noundef 2620, i32 noundef %50, i32 noundef 0, i32 noundef 0, i1 noundef zeroext false) #16
  br label %51

51:                                               ; preds = %49, %46
  call void @CacheInvalidateRelcache(ptr noundef nonnull %1) #16
  br label %52

52:                                               ; preds = %5, %51
  call void @llvm.lifetime.end.p0(i64 144, ptr nonnull %6) #16
  ret void
}